target datalayout = "e-m:e-p270:32:32-p271:32:32-p272:64:64-i64:64-i128:128-f80:128-n8:16:32:64-S128"
target triple = "x86_64-pc-linux-gnu"

%"class.icu_77::Calendar" = type <{ %"class.icu_77::UObject", [24 x i32], [24 x i8], i8, [7 x i8], double, ptr, i8, i16, i8, i32, i32, i32, i8, i8, i16, [4 x i8], ptr, ptr }>
%"class.icu_77::UObject" = type { ptr }

@_ZN6icu_778Calendar16kMonthPrecedenceE = external constant [0 x [12 x [8 x i32]]], align 4

; Function Attrs: inlinehint mustprogress nounwind uwtable
define linkonce_odr noundef i32 @_ZNK6icu_778Calendar11internalGetE19UCalendarDateFieldsi(ptr noundef nonnull align 8 dereferenceable(192) %0, i32 noundef %1, i32 noundef %2) #4 comdat align 2 {
  %4 = alloca ptr, align 8
  %5 = alloca i32, align 4
  %6 = alloca i32, align 4
  store ptr %0, ptr %4, align 8, !tbaa !36
  store i32 %1, ptr %5, align 4, !tbaa !25
  store i32 %2, ptr %6, align 4, !tbaa !29
  %7 = load ptr, ptr %4, align 8
  %8 = getelementptr inbounds nuw %"class.icu_77::Calendar", ptr %7, i32 0, i32 2
  %9 = load i32, ptr %5, align 4, !tbaa !25
  %10 = zext i32 %9 to i64
  %11 = getelementptr inbounds nuw [24 x i8], ptr %8, i64 0, i64 %10
  %12 = load i8, ptr %11, align 1, !tbaa !38
  %13 = sext i8 %12 to i32
  %14 = icmp sgt i32 %13, 0
  br i1 %14, label %15, label %21

15:                                               ; preds = %3
  %16 = getelementptr inbounds nuw %"class.icu_77::Calendar", ptr %7, i32 0, i32 1
  %17 = load i32, ptr %5, align 4, !tbaa !25
  %18 = zext i32 %17 to i64
  %19 = getelementptr inbounds nuw [24 x i32], ptr %16, i64 0, i64 %18
  %20 = load i32, ptr %19, align 4, !tbaa !29
  br label %23

21:                                               ; preds = %3
  %22 = load i32, ptr %6, align 4, !tbaa !29
  br label %23

23:                                               ; preds = %21, %15
  %24 = phi i32 [ %20, %15 ], [ %22, %21 ]
  ret i32 %24
}

; Function Attrs: inlinehint mustprogress nounwind uwtable
define internal noundef signext i8 @_ZL9U_FAILURE10UErrorCode(i32 noundef %0) #4 {
  %2 = alloca i32, align 4
  store i32 %0, ptr %2, align 4, !tbaa !30
  %3 = load i32, ptr %2, align 4, !tbaa !30
  %4 = icmp sgt i32 %3, 0
  %5 = zext i1 %4 to i8
  ret i8 %5
}

; Function Attrs: mustprogress uwtable
define noundef i32 @_ZNK6icu_7715ChineseCalendar16internalGetMonthEiR10UErrorCode(ptr noundef nonnull align 8 dereferenceable(193) %0, i32 noundef %1, ptr noundef nonnull align 4 dereferenceable(4) %2) unnamed_addr #0 align 2 {
  %4 = alloca i32, align 4
  %5 = alloca ptr, align 8
  %6 = alloca i32, align 4
  %7 = alloca ptr, align 8
  store ptr %0, ptr %5, align 8, !tbaa !3
  store i32 %1, ptr %6, align 4, !tbaa !29
  store ptr %2, ptr %7, align 8, !tbaa !10
  %8 = load ptr, ptr %5, align 8
  %9 = load ptr, ptr %7, align 8, !tbaa !10
  %10 = load i32, ptr %9, align 4, !tbaa !30
  %11 = call noundef signext i8 @_ZL9U_FAILURE10UErrorCode(i32 noundef %10)
  %12 = icmp ne i8 %11, 0
  br i1 %12, label %13, label %14

13:                                               ; preds = %3
  store i32 0, ptr %4, align 4
  br label %26

14:                                               ; preds = %3
  %15 = call noundef i32 @_ZNK6icu_778Calendar13resolveFieldsEPA12_A8_Ki(ptr noundef nonnull align 8 dereferenceable(192) %8, ptr noundef @_ZN6icu_778Calendar16kMonthPrecedenceE)
  %16 = icmp eq i32 %15, 2
  br i1 %16, label %17, label %20

17:                                               ; preds = %14
  %18 = load i32, ptr %6, align 4, !tbaa !29
  %19 = call noundef i32 @_ZNK6icu_778Calendar11internalGetE19UCalendarDateFieldsi(ptr noundef nonnull align 8 dereferenceable(192) %8, i32 noundef 2, i32 noundef %18)
  store i32 %19, ptr %4, align 4
  br label %26

20:                                               ; preds = %14
  %21 = load ptr, ptr %7, align 8, !tbaa !10
  %22 = load ptr, ptr %8, align 8, !tbaa !11
  %23 = getelementptr inbounds ptr, ptr %22, i64 34
  %24 = load ptr, ptr %23, align 8
  %25 = call noundef i32 %24(ptr noundef nonnull align 8 dereferenceable(193) %8, ptr noundef nonnull align 4 dereferenceable(4) %21)
  store i32 %25, ptr %4, align 4
  br label %26

26:                                               ; preds = %20, %17, %13
  %27 = load i32, ptr %4, align 4
  ret i32 %27
}