; Function Attrs: mustprogress uwtable
define noundef i32 @_ZNK6icu_7715ChineseCalendar16internalGetMonthEiR10UErrorCode(ptr noundef nonnull align 8 dereferenceable(193) %0, i32 noundef %1, ptr noundef nonnull align 4 dereferenceable(4) %2) unnamed_addr #0 align 2 {
  %4 = load i32, ptr %2, align 4, !tbaa !21
  %5 = icmp slt i32 %4, 1
  br i1 %5, label %6, label %_ZNK6icu_778Calendar11internalGetE19UCalendarDateFieldsi.exit

6:                                                ; preds = %3
  %7 = tail call noundef i32 @_ZNK6icu_778Calendar13resolveFieldsEPA12_A8_Ki(ptr noundef nonnull align 8 dereferenceable(192) %0, ptr noundef nonnull @_ZN6icu_778Calendar16kMonthPrecedenceE)
  %8 = icmp eq i32 %7, 2
  br i1 %8, label %9, label %16

9:                                                ; preds = %6
  %10 = getelementptr inbounds nuw i8, ptr %0, i64 106
  %11 = load i8, ptr %10, align 2, !tbaa !23
  %12 = icmp sgt i8 %11, 0
  br i1 %12, label %13, label %_ZNK6icu_778Calendar11internalGetE19UCalendarDateFieldsi.exit

13:                                               ; preds = %9
  %14 = getelementptr inbounds nuw i8, ptr %0, i64 16
  %15 = load i32, ptr %14, align 8, !tbaa !20
  br label %_ZNK6icu_778Calendar11internalGetE19UCalendarDateFieldsi.exit

16:                                               ; preds = %6
  %17 = load ptr, ptr %0, align 8, !tbaa !3
  %18 = getelementptr inbounds nuw i8, ptr %17, i64 272
  %19 = load ptr, ptr %18, align 8
  %20 = tail call noundef i32 %19(ptr noundef nonnull align 8 dereferenceable(193) %0, ptr noundef nonnull align 4 dereferenceable(4) %2)
  br label %_ZNK6icu_778Calendar11internalGetE19UCalendarDateFieldsi.exit

_ZNK6icu_778Calendar11internalGetE19UCalendarDateFieldsi.exit: ; preds = %13, %9, %3, %16
  %.0 = phi i32 [ %20, %16 ], [ 0, %3 ], [ %15, %13 ], [ %1, %9 ]
  ret i32 %.0
}